target datalayout = "e-m:e-p270:32:32-p271:32:32-p272:64:64-i64:64-i128:128-f80:128-n8:16:32:64-S128"
target triple = "x86_64-pc-linux-gnu"

%struct.Vec_Int_t_ = type { i32, i32, ptr }
%struct.Vec_Wec_t_ = type { i32, i32, ptr }

@.str.19 = private unnamed_addr constant [23 x i8] c"Shifted one level up.\0A\00", align 1
@.str.20 = private unnamed_addr constant [25 x i8] c"Shifted one level down.\0A\00", align 1

; Function Attrs: nounwind uwtable
define internal void @Vec_WecErase(ptr noundef %0) #0 {
  %2 = alloca ptr, align 8
  %3 = alloca i32, align 4
  store ptr %0, ptr %2, align 8
  store i32 0, ptr %3, align 4
  br label %4

4:                                                ; preds = %38, %1
  %5 = load i32, ptr %3, align 4
  %6 = load ptr, ptr %2, align 8
  %7 = getelementptr inbounds %struct.Vec_Wec_t_, ptr %6, i32 0, i32 0
  %8 = load i32, ptr %7, align 8
  %9 = icmp slt i32 %5, %8
  br i1 %9, label %10, label %41

10:                                               ; preds = %4
  %11 = load ptr, ptr %2, align 8
  %12 = getelementptr inbounds %struct.Vec_Wec_t_, ptr %11, i32 0, i32 2
  %13 = load ptr, ptr %12, align 8
  %14 = load i32, ptr %3, align 4
  %15 = sext i32 %14 to i64
  %16 = getelementptr inbounds %struct.Vec_Int_t_, ptr %13, i64 %15
  %17 = getelementptr inbounds %struct.Vec_Int_t_, ptr %16, i32 0, i32 2
  %18 = load ptr, ptr %17, align 8
  %19 = icmp ne ptr %18, null
  br i1 %19, label %20, label %36

20:                                               ; preds = %10
  %21 = load ptr, ptr %2, align 8
  %22 = getelementptr inbounds %struct.Vec_Wec_t_, ptr %21, i32 0, i32 2
  %23 = load ptr, ptr %22, align 8
  %24 = load i32, ptr %3, align 4
  %25 = sext i32 %24 to i64
  %26 = getelementptr inbounds %struct.Vec_Int_t_, ptr %23, i64 %25
  %27 = getelementptr inbounds %struct.Vec_Int_t_, ptr %26, i32 0, i32 2
  %28 = load ptr, ptr %27, align 8
  call void @free(ptr noundef %28) #12
  %29 = load ptr, ptr %2, align 8
  %30 = getelementptr inbounds %struct.Vec_Wec_t_, ptr %29, i32 0, i32 2
  %31 = load ptr, ptr %30, align 8
  %32 = load i32, ptr %3, align 4
  %33 = sext i32 %32 to i64
  %34 = getelementptr inbounds %struct.Vec_Int_t_, ptr %31, i64 %33
  %35 = getelementptr inbounds %struct.Vec_Int_t_, ptr %34, i32 0, i32 2
  store ptr null, ptr %35, align 8
  br label %37

36:                                               ; preds = %10
  br label %37

37:                                               ; preds = %36, %20
  br label %38

38:                                               ; preds = %37
  %39 = load i32, ptr %3, align 4
  %40 = add nsw i32 %39, 1
  store i32 %40, ptr %3, align 4
  br label %4, !llvm.loop !44

41:                                               ; preds = %4
  %42 = load ptr, ptr %2, align 8
  %43 = getelementptr inbounds %struct.Vec_Wec_t_, ptr %42, i32 0, i32 2
  %44 = load ptr, ptr %43, align 8
  %45 = icmp ne ptr %44, null
  br i1 %45, label %46, label %52

46:                                               ; preds = %41
  %47 = load ptr, ptr %2, align 8
  %48 = getelementptr inbounds %struct.Vec_Wec_t_, ptr %47, i32 0, i32 2
  %49 = load ptr, ptr %48, align 8
  call void @free(ptr noundef %49) #12
  %50 = load ptr, ptr %2, align 8
  %51 = getelementptr inbounds %struct.Vec_Wec_t_, ptr %50, i32 0, i32 2
  store ptr null, ptr %51, align 8
  br label %53

52:                                               ; preds = %41
  br label %53

53:                                               ; preds = %52, %46
  %54 = load ptr, ptr %2, align 8
  %55 = getelementptr inbounds %struct.Vec_Wec_t_, ptr %54, i32 0, i32 1
  store i32 0, ptr %55, align 4
  %56 = load ptr, ptr %2, align 8
  %57 = getelementptr inbounds %struct.Vec_Wec_t_, ptr %56, i32 0, i32 0
  store i32 0, ptr %57, align 8
  ret void
}

; Function Attrs: nounwind uwtable
define internal void @Vec_WecFree(ptr noundef %0) #0 {
  %2 = alloca ptr, align 8
  store ptr %0, ptr %2, align 8
  %3 = load ptr, ptr %2, align 8
  call void @Vec_WecErase(ptr noundef %3)
  %4 = load ptr, ptr %2, align 8
  %5 = icmp ne ptr %4, null
  br i1 %5, label %6, label %8

6:                                                ; preds = %1
  %7 = load ptr, ptr %2, align 8
  call void @free(ptr noundef %7) #12
  store ptr null, ptr %2, align 8
  br label %9

8:                                                ; preds = %1
  br label %9

9:                                                ; preds = %8, %6
  ret void
}

; Function Attrs: nounwind uwtable
define void @Acec_MatchCheckShift(ptr noundef %0, ptr noundef %1, ptr noundef %2, ptr noundef %3, ptr noundef %4, ptr noundef %5, ptr noundef %6, ptr noundef %7) #0 {
  %9 = alloca ptr, align 8
  %10 = alloca ptr, align 8
  %11 = alloca ptr, align 8
  %12 = alloca ptr, align 8
  %13 = alloca ptr, align 8
  %14 = alloca ptr, align 8
  %15 = alloca ptr, align 8
  %16 = alloca ptr, align 8
  %17 = alloca ptr, align 8
  %18 = alloca ptr, align 8
  %19 = alloca i32, align 4
  %20 = alloca i32, align 4
  %21 = alloca i32, align 4
  store ptr %0, ptr %9, align 8
  store ptr %1, ptr %10, align 8
  store ptr %2, ptr %11, align 8
  store ptr %3, ptr %12, align 8
  store ptr %4, ptr %13, align 8
  store ptr %5, ptr %14, align 8
  store ptr %6, ptr %15, align 8
  store ptr %7, ptr %16, align 8
  %22 = load ptr, ptr %11, align 8
  %23 = load ptr, ptr %13, align 8
  %24 = call ptr @Acec_MatchCopy(ptr noundef %22, ptr noundef %23)
  store ptr %24, ptr %17, align 8
  %25 = load ptr, ptr %12, align 8
  %26 = load ptr, ptr %14, align 8
  %27 = call ptr @Acec_MatchCopy(ptr noundef %25, ptr noundef %26)
  store ptr %27, ptr %18, align 8
  %28 = load ptr, ptr %17, align 8
  %29 = load ptr, ptr %18, align 8
  %30 = call i32 @Acec_MatchCountCommon(ptr noundef %28, ptr noundef %29, i32 noundef 0)
  store i32 %30, ptr %19, align 4
  %31 = load ptr, ptr %17, align 8
  %32 = load ptr, ptr %18, align 8
  %33 = call i32 @Acec_MatchCountCommon(ptr noundef %31, ptr noundef %32, i32 noundef 1)
  store i32 %33, ptr %20, align 4
  %34 = load ptr, ptr %17, align 8
  %35 = load ptr, ptr %18, align 8
  %36 = call i32 @Acec_MatchCountCommon(ptr noundef %34, ptr noundef %35, i32 noundef -1)
  store i32 %36, ptr %21, align 4
  %37 = load i32, ptr %20, align 4
  %38 = load i32, ptr %21, align 4
  %39 = icmp sge i32 %37, %38
  br i1 %39, label %40, label %52

40:                                               ; preds = %8
  %41 = load i32, ptr %20, align 4
  %42 = load i32, ptr %19, align 4
  %43 = icmp sgt i32 %41, %42
  br i1 %43, label %44, label %52

44:                                               ; preds = %40
  %45 = load ptr, ptr %11, align 8
  %46 = call ptr @Vec_WecInsertLevel(ptr noundef %45, i32 noundef 0)
  %47 = load ptr, ptr %15, align 8
  %48 = call ptr @Vec_WecInsertLevel(ptr noundef %47, i32 noundef 0)
  %49 = load ptr, ptr %17, align 8
  %50 = call ptr @Vec_WecInsertLevel(ptr noundef %49, i32 noundef 0)
  %51 = call i32 (ptr, ...) @printf(ptr noundef @.str.19)
  br label %69

52:                                               ; preds = %40, %8
  %53 = load i32, ptr %21, align 4
  %54 = load i32, ptr %20, align 4
  %55 = icmp sgt i32 %53, %54
  br i1 %55, label %56, label %68

56:                                               ; preds = %52
  %57 = load i32, ptr %21, align 4
  %58 = load i32, ptr %19, align 4
  %59 = icmp sgt i32 %57, %58
  br i1 %59, label %60, label %68

60:                                               ; preds = %56
  %61 = load ptr, ptr %12, align 8
  %62 = call ptr @Vec_WecInsertLevel(ptr noundef %61, i32 noundef 0)
  %63 = load ptr, ptr %16, align 8
  %64 = call ptr @Vec_WecInsertLevel(ptr noundef %63, i32 noundef 0)
  %65 = load ptr, ptr %18, align 8
  %66 = call ptr @Vec_WecInsertLevel(ptr noundef %65, i32 noundef 0)
  %67 = call i32 (ptr, ...) @printf(ptr noundef @.str.20)
  br label %68

68:                                               ; preds = %60, %56, %52
  br label %69

69:                                               ; preds = %68, %44
  %70 = load ptr, ptr %11, align 8
  %71 = load ptr, ptr %17, align 8
  call void @Acec_MoveDuplicates(ptr noundef %70, ptr noundef %71)
  %72 = load ptr, ptr %12, align 8
  %73 = load ptr, ptr %18, align 8
  call void @Acec_MoveDuplicates(ptr noundef %72, ptr noundef %73)
  %74 = load ptr, ptr %17, align 8
  call void @Vec_WecFree(ptr noundef %74)
  %75 = load ptr, ptr %18, align 8
  call void @Vec_WecFree(ptr noundef %75)
  ret void
}