; Function Attrs: nounwind uwtable
define void @Acec_MatchCheckShift(ptr readnone captures(none) %0, ptr readnone captures(none) %1, ptr noundef captures(none) %2, ptr noundef captures(none) %3, ptr noundef readonly captures(none) %4, ptr noundef readonly captures(none) %5, ptr noundef captures(none) %6, ptr noundef captures(none) %7) local_unnamed_addr #2 {
  %9 = tail call ptr @Acec_MatchCopy(ptr noundef %2, ptr noundef %4)
  %10 = tail call ptr @Acec_MatchCopy(ptr noundef %3, ptr noundef %5)
  %11 = tail call i32 @Acec_MatchCountCommon(ptr noundef %9, ptr noundef %10, i32 noundef 0)
  %12 = tail call i32 @Acec_MatchCountCommon(ptr noundef %9, ptr noundef %10, i32 noundef 1)
  %13 = tail call i32 @Acec_MatchCountCommon(ptr noundef %9, ptr noundef %10, i32 noundef -1)
  %.not = icmp sge i32 %12, %13
  %14 = icmp sgt i32 %12, %11
  %or.cond = select i1 %.not, i1 %14, i1 false
  br i1 %or.cond, label %.sink.split, label %15

15:                                               ; preds = %8
  %16 = icmp sgt i32 %13, %12
  %17 = icmp sgt i32 %13, %11
  %or.cond31 = select i1 %16, i1 %17, i1 false
  br i1 %or.cond31, label %.sink.split, label %18

.sink.split:                                      ; preds = %15, %8
  %.sink46 = phi ptr [ %2, %8 ], [ %3, %15 ]
  %.sink45 = phi ptr [ %6, %8 ], [ %7, %15 ]
  %.sink = phi ptr [ %9, %8 ], [ %10, %15 ]
  %str.2.sink = phi ptr [ @str.3, %8 ], [ @str.2, %15 ]
  tail call fastcc void @Vec_WecInsertLevel(ptr noundef %.sink46)
  tail call fastcc void @Vec_WecInsertLevel(ptr noundef %.sink45)
  tail call fastcc void @Vec_WecInsertLevel(ptr noundef %.sink)
  %puts = tail call i32 @puts(ptr nonnull dereferenceable(1) %str.2.sink)
  br label %18

18:                                               ; preds = %.sink.split, %15
  tail call void @Acec_MoveDuplicates(ptr noundef %2, ptr noundef %9)
  tail call void @Acec_MoveDuplicates(ptr noundef %3, ptr noundef %10)
  %19 = load i32, ptr %9, align 8
  %20 = icmp sgt i32 %19, 0
  %21 = getelementptr inbounds nuw i8, ptr %9, i64 8
  %22 = load ptr, ptr %21, align 8
  br i1 %20, label %.lr.ph.i.i, label %._crit_edge.i.i

.lr.ph.i.i:                                       ; preds = %18
  %23 = zext nneg i32 %19 to i64
  br label %24

24:                                               ; preds = %28, %.lr.ph.i.i
  %indvars.iv.i.i = phi i64 [ 0, %.lr.ph.i.i ], [ %indvars.iv.next.i.i, %28 ]
  %25 = getelementptr inbounds nuw %struct.Vec_Int_t_, ptr %22, i64 %indvars.iv.i.i, i32 2
  %26 = load ptr, ptr %25, align 8
  %.not15.i.i = icmp eq ptr %26, null
  br i1 %.not15.i.i, label %28, label %27

27:                                               ; preds = %24
  tail call void @free(ptr noundef nonnull %26) #20
  store ptr null, ptr %25, align 8
  br label %28

28:                                               ; preds = %27, %24
  %indvars.iv.next.i.i = add nuw nsw i64 %indvars.iv.i.i, 1
  %exitcond.not = icmp eq i64 %indvars.iv.next.i.i, %23
  br i1 %exitcond.not, label %._crit_edge.i.i.thread, label %24, !llvm.loop !33

._crit_edge.i.i:                                  ; preds = %18
  %.not.i.i = icmp eq ptr %22, null
  br i1 %.not.i.i, label %Vec_WecFree.exit, label %._crit_edge.i.i.thread

._crit_edge.i.i.thread:                           ; preds = %28, %._crit_edge.i.i
  tail call void @free(ptr noundef nonnull %22) #20
  br label %Vec_WecFree.exit

Vec_WecFree.exit:                                 ; preds = %._crit_edge.i.i, %._crit_edge.i.i.thread
  tail call void @free(ptr noundef nonnull %9) #20
  %29 = load i32, ptr %10, align 8
  %30 = icmp sgt i32 %29, 0
  %31 = getelementptr inbounds nuw i8, ptr %10, i64 8
  %32 = load ptr, ptr %31, align 8
  br i1 %30, label %.lr.ph.i.i34, label %._crit_edge.i.i32

.lr.ph.i.i34:                                     ; preds = %Vec_WecFree.exit
  %33 = zext nneg i32 %29 to i64
  br label %34

34:                                               ; preds = %38, %.lr.ph.i.i34
  %indvars.iv.i.i35 = phi i64 [ 0, %.lr.ph.i.i34 ], [ %indvars.iv.next.i.i38, %38 ]
  %35 = getelementptr inbounds nuw %struct.Vec_Int_t_, ptr %32, i64 %indvars.iv.i.i35, i32 2
  %36 = load ptr, ptr %35, align 8
  %.not15.i.i36 = icmp eq ptr %36, null
  br i1 %.not15.i.i36, label %38, label %37

37:                                               ; preds = %34
  tail call void @free(ptr noundef nonnull %36) #20
  store ptr null, ptr %35, align 8
  br label %38

38:                                               ; preds = %37, %34
  %indvars.iv.next.i.i38 = add nuw nsw i64 %indvars.iv.i.i35, 1
  %exitcond40.not = icmp eq i64 %indvars.iv.next.i.i38, %33
  br i1 %exitcond40.not, label %._crit_edge.i.i32.thread, label %34, !llvm.loop !33

._crit_edge.i.i32:                                ; preds = %Vec_WecFree.exit
  %.not.i.i33 = icmp eq ptr %32, null
  br i1 %.not.i.i33, label %Vec_WecFree.exit39, label %._crit_edge.i.i32.thread

._crit_edge.i.i32.thread:                         ; preds = %38, %._crit_edge.i.i32
  tail call void @free(ptr noundef nonnull %32) #20
  br label %Vec_WecFree.exit39

Vec_WecFree.exit39:                               ; preds = %._crit_edge.i.i32, %._crit_edge.i.i32.thread
  tail call void @free(ptr noundef nonnull %10) #20
  ret void
}